target datalayout = "e-m:e-p270:32:32-p271:32:32-p272:64:64-i64:64-i128:128-f80:128-n8:16:32:64-S128"
target triple = "x86_64-pc-linux-gnu"

%struct.ps_prochandle = type { ptr, i32, i32, ptr, ptr, i32, ptr, ptr }
%struct.lib_info = type { [4352 x i8], i64, i64, i64, i64, %struct.eh_frame_info, ptr, i32, ptr }
%struct.eh_frame_info = type { i64, i64, ptr, i32 }

; Function Attrs: nounwind uwtable
define hidden ptr @symbol_for_pc(ptr noundef %0, i64 noundef %1, ptr noundef %2) #0 {
  %4 = alloca ptr, align 8
  %5 = alloca ptr, align 8
  %6 = alloca i64, align 8
  %7 = alloca ptr, align 8
  %8 = alloca ptr, align 8
  %9 = alloca ptr, align 8
  store ptr %0, ptr %5, align 8
  store i64 %1, ptr %6, align 8
  store ptr %2, ptr %7, align 8
  store ptr null, ptr %8, align 8
  %10 = load ptr, ptr %5, align 8
  %11 = getelementptr inbounds %struct.ps_prochandle, ptr %10, i32 0, i32 3
  %12 = load ptr, ptr %11, align 8
  store ptr %12, ptr %9, align 8
  br label %13

13:                                               ; preds = %43, %3
  %14 = load ptr, ptr %9, align 8
  %15 = icmp ne ptr %14, null
  br i1 %15, label %16, label %47

16:                                               ; preds = %13
  %17 = load ptr, ptr %9, align 8
  %18 = getelementptr inbounds %struct.lib_info, ptr %17, i32 0, i32 6
  %19 = load ptr, ptr %18, align 8
  %20 = icmp ne ptr %19, null
  br i1 %20, label %21, label %43

21:                                               ; preds = %16
  %22 = load i64, ptr %6, align 8
  %23 = load ptr, ptr %9, align 8
  %24 = getelementptr inbounds %struct.lib_info, ptr %23, i32 0, i32 1
  %25 = load i64, ptr %24, align 8
  %26 = icmp uge i64 %22, %25
  br i1 %26, label %27, label %43

27:                                               ; preds = %21
  %28 = load ptr, ptr %9, align 8
  %29 = getelementptr inbounds %struct.lib_info, ptr %28, i32 0, i32 6
  %30 = load ptr, ptr %29, align 8
  %31 = load i64, ptr %6, align 8
  %32 = load ptr, ptr %9, align 8
  %33 = getelementptr inbounds %struct.lib_info, ptr %32, i32 0, i32 1
  %34 = load i64, ptr %33, align 8
  %35 = sub i64 %31, %34
  %36 = load ptr, ptr %7, align 8
  %37 = call ptr @nearest_symbol(ptr noundef %30, i64 noundef %35, ptr noundef %36)
  store ptr %37, ptr %8, align 8
  %38 = load ptr, ptr %8, align 8
  %39 = icmp ne ptr %38, null
  br i1 %39, label %40, label %42

40:                                               ; preds = %27
  %41 = load ptr, ptr %8, align 8
  store ptr %41, ptr %4, align 8
  br label %48

42:                                               ; preds = %27
  br label %43

43:                                               ; preds = %42, %21, %16
  %44 = load ptr, ptr %9, align 8
  %45 = getelementptr inbounds %struct.lib_info, ptr %44, i32 0, i32 8
  %46 = load ptr, ptr %45, align 8
  store ptr %46, ptr %9, align 8
  br label %13, !llvm.loop !12

47:                                               ; preds = %13
  store ptr null, ptr %4, align 8
  br label %48

48:                                               ; preds = %47, %40
  %49 = load ptr, ptr %4, align 8
  ret ptr %49
}