; Function Attrs: nounwind uwtable
define hidden ptr @symbol_for_pc(ptr nocapture noundef readonly %0, i64 noundef %1, ptr noundef %2) local_unnamed_addr #9 {
  %4 = getelementptr inbounds i8, ptr %0, i64 16
  %.020 = load ptr, ptr %4, align 8
  %.not21 = icmp eq ptr %.020, null
  br i1 %.not21, label %._crit_edge, label %.lr.ph

.lr.ph:                                           ; preds = %3, %13
  %.022 = phi ptr [ %.0, %13 ], [ %.020, %3 ]
  %5 = getelementptr inbounds i8, ptr %.022, i64 4416
  %6 = load ptr, ptr %5, align 8
  %.not17 = icmp eq ptr %6, null
  br i1 %.not17, label %13, label %7

7:                                                ; preds = %.lr.ph
  %8 = getelementptr inbounds i8, ptr %.022, i64 4352
  %9 = load i64, ptr %8, align 8
  %.not18 = icmp ugt i64 %9, %1
  br i1 %.not18, label %13, label %10

10:                                               ; preds = %7
  %11 = sub i64 %1, %9
  %12 = tail call ptr @nearest_symbol(ptr noundef nonnull %6, i64 noundef %11, ptr noundef %2) #21
  %.not19 = icmp eq ptr %12, null
  br i1 %.not19, label %13, label %._crit_edge

13:                                               ; preds = %10, %7, %.lr.ph
  %14 = getelementptr inbounds i8, ptr %.022, i64 4432
  %.0 = load ptr, ptr %14, align 8
  %.not = icmp eq ptr %.0, null
  br i1 %.not, label %._crit_edge, label %.lr.ph, !llvm.loop !12

._crit_edge:                                      ; preds = %10, %13, %3
  %.012 = phi ptr [ null, %3 ], [ null, %13 ], [ %12, %10 ]
  ret ptr %.012
}